target datalayout = "e-m:e-p270:32:32-p271:32:32-p272:64:64-i64:64-i128:128-f80:128-n8:16:32:64-S128"
target triple = "x86_64-pc-linux-gnu"

%union.pthread_cond_t = type { %struct.__pthread_cond_s }
%struct.__pthread_cond_s = type { %union.__atomic_wide_counter, %union.__atomic_wide_counter, [2 x i32], [2 x i32], i32, i32, [2 x i32] }
%union.__atomic_wide_counter = type { i64 }
%union.pthread_mutex_t = type { %struct.__pthread_mutex_s }
%struct.__pthread_mutex_s = type { i32, i32, i32, i32, i32, i16, i16, %struct.__pthread_internal_list }
%struct.__pthread_internal_list = type { ptr, ptr }

@running_cache = dso_local global i16 0, align 2
@assoc_cache_mutex = dso_local global %union.pthread_mutex_t zeroinitializer, align 8
@assoc_cache_cond = dso_local global %union.pthread_cond_t zeroinitializer, align 8
@.str.43 = private unnamed_addr constant [29 x i8] c"%s: pthread_mutex_lock(): %m\00", align 1
@.str.44 = private unnamed_addr constant [31 x i8] c"%s: pthread_mutex_unlock(): %m\00", align 1
@.str.58 = private unnamed_addr constant [36 x i8] c"%s:%d %s: pthread_cond_signal(): %m\00", align 1
@.str.59 = private unnamed_addr constant [13 x i8] c"controller.c\00", align 1
@.str.60 = private unnamed_addr constant [23 x i8] c"%s: pthread_join(): %m\00", align 1
@assoc_cache_thread = internal global i64 0, align 8
@__func__.ctld_assoc_mgr_fini = private unnamed_addr constant [20 x i8] c"ctld_assoc_mgr_fini\00", align 1

; Function Attrs: nounwind uwtable
define dso_local void @ctld_assoc_mgr_fini() #0 {
  %1 = alloca i32, align 4
  %2 = alloca i32, align 4
  %3 = alloca i32, align 4
  %4 = alloca i32, align 4
  %5 = load i16, ptr @running_cache, align 2
  %6 = zext i16 %5 to i32
  %7 = icmp eq i32 %6, 0
  br i1 %7, label %8, label %9

8:                                                ; preds = %0
  br label %52

9:                                                ; preds = %0
  br label %10

10:                                               ; preds = %9
  call void @llvm.lifetime.start.p0(i64 4, ptr %1) #11
  %11 = call i32 @pthread_mutex_lock(ptr noundef @assoc_cache_mutex) #11
  store i32 %11, ptr %1, align 4
  %12 = load i32, ptr %1, align 4
  %13 = icmp ne i32 %12, 0
  br i1 %13, label %14, label %17

14:                                               ; preds = %10
  %15 = load i32, ptr %1, align 4
  %16 = call ptr @__errno_location() #14
  store i32 %15, ptr %16, align 4
  call void (ptr, ...) @fatal_abort(ptr noundef @.str.43, ptr noundef @__func__.ctld_assoc_mgr_fini) #12
  unreachable

17:                                               ; preds = %10
  call void @llvm.lifetime.end.p0(i64 4, ptr %1) #11
  br label %18

18:                                               ; preds = %17
  store i16 2, ptr @running_cache, align 2
  br label %19

19:                                               ; preds = %18
  call void @llvm.lifetime.start.p0(i64 4, ptr %2) #11
  %20 = call i32 @pthread_cond_signal(ptr noundef @assoc_cache_cond) #11
  store i32 %20, ptr %2, align 4
  %21 = load i32, ptr %2, align 4
  %22 = icmp ne i32 %21, 0
  br i1 %22, label %23, label %27

23:                                               ; preds = %19
  %24 = load i32, ptr %2, align 4
  %25 = call ptr @__errno_location() #14
  store i32 %24, ptr %25, align 4
  %26 = call i32 (ptr, ...) @error(ptr noundef @.str.58, ptr noundef @.str.59, i32 noundef 2734, ptr noundef @__func__.ctld_assoc_mgr_fini)
  br label %27

27:                                               ; preds = %23, %19
  call void @llvm.lifetime.end.p0(i64 4, ptr %2) #11
  br label %28

28:                                               ; preds = %27
  br label %29

29:                                               ; preds = %28
  call void @llvm.lifetime.start.p0(i64 4, ptr %3) #11
  %30 = call i32 @pthread_mutex_unlock(ptr noundef @assoc_cache_mutex) #11
  store i32 %30, ptr %3, align 4
  %31 = load i32, ptr %3, align 4
  %32 = icmp ne i32 %31, 0
  br i1 %32, label %33, label %36

33:                                               ; preds = %29
  %34 = load i32, ptr %3, align 4
  %35 = call ptr @__errno_location() #14
  store i32 %34, ptr %35, align 4
  call void (ptr, ...) @fatal_abort(ptr noundef @.str.44, ptr noundef @__func__.ctld_assoc_mgr_fini) #12
  unreachable

36:                                               ; preds = %29
  call void @llvm.lifetime.end.p0(i64 4, ptr %3) #11
  br label %37

37:                                               ; preds = %36
  br label %38

38:                                               ; preds = %37
  call void @llvm.lifetime.start.p0(i64 4, ptr %4) #11
  store i32 0, ptr %4, align 4
  %39 = load i64, ptr @assoc_cache_thread, align 8
  %40 = icmp ne i64 %39, 0
  br i1 %40, label %41, label %44

41:                                               ; preds = %38
  %42 = load i64, ptr @assoc_cache_thread, align 8
  %43 = call i32 @pthread_join(i64 noundef %42, ptr noundef null)
  store i32 %43, ptr %4, align 4
  store i64 0, ptr @assoc_cache_thread, align 8
  br label %44

44:                                               ; preds = %41, %38
  %45 = load i32, ptr %4, align 4
  %46 = icmp ne i32 %45, 0
  br i1 %46, label %47, label %51

47:                                               ; preds = %44
  %48 = load i32, ptr %4, align 4
  %49 = call ptr @__errno_location() #14
  store i32 %48, ptr %49, align 4
  %50 = call i32 (ptr, ...) @error(ptr noundef @.str.60, ptr noundef @__func__.ctld_assoc_mgr_fini)
  br label %51

51:                                               ; preds = %47, %44
  call void @llvm.lifetime.end.p0(i64 4, ptr %4) #11
  br label %52

52:                                               ; preds = %8, %51
  ret void
}