; Function Attrs: nounwind uwtable
define dso_local void @ctld_assoc_mgr_fini() local_unnamed_addr #6 {
  %1 = load i16, ptr @running_cache, align 2
  %2 = icmp eq i16 %1, 0
  br i1 %2, label %.thread, label %3

3:                                                ; preds = %0
  %4 = tail call i32 @pthread_mutex_lock(ptr noundef nonnull @assoc_cache_mutex) #19
  %.not = icmp eq i32 %4, 0
  br i1 %.not, label %7, label %5

5:                                                ; preds = %3
  %6 = tail call ptr @__errno_location() #21
  store i32 %4, ptr %6, align 4
  tail call void (ptr, ...) @fatal_abort(ptr noundef nonnull @.str.43, ptr noundef nonnull @__func__.ctld_assoc_mgr_fini) #20
  unreachable

7:                                                ; preds = %3
  store i16 2, ptr @running_cache, align 2
  %8 = tail call i32 @pthread_cond_signal(ptr noundef nonnull @assoc_cache_cond) #19
  %.not12 = icmp eq i32 %8, 0
  br i1 %.not12, label %12, label %9

9:                                                ; preds = %7
  %10 = tail call ptr @__errno_location() #21
  store i32 %8, ptr %10, align 4
  %11 = tail call i32 (ptr, ...) @error(ptr noundef nonnull @.str.58, ptr noundef nonnull @.str.59, i32 noundef 2734, ptr noundef nonnull @__func__.ctld_assoc_mgr_fini) #19
  br label %12

12:                                               ; preds = %9, %7
  %13 = tail call i32 @pthread_mutex_unlock(ptr noundef nonnull @assoc_cache_mutex) #19
  %.not13 = icmp eq i32 %13, 0
  br i1 %.not13, label %16, label %14

14:                                               ; preds = %12
  %15 = tail call ptr @__errno_location() #21
  store i32 %13, ptr %15, align 4
  tail call void (ptr, ...) @fatal_abort(ptr noundef nonnull @.str.44, ptr noundef nonnull @__func__.ctld_assoc_mgr_fini) #20
  unreachable

16:                                               ; preds = %12
  %17 = load i64, ptr @assoc_cache_thread, align 8
  %.not14 = icmp eq i64 %17, 0
  br i1 %.not14, label %.thread, label %18

18:                                               ; preds = %16
  %19 = tail call i32 @pthread_join(i64 noundef %17, ptr noundef null) #19
  store i64 0, ptr @assoc_cache_thread, align 8
  %.not15 = icmp eq i32 %19, 0
  br i1 %.not15, label %.thread, label %20

20:                                               ; preds = %18
  %21 = tail call ptr @__errno_location() #21
  store i32 %19, ptr %21, align 4
  %22 = tail call i32 (ptr, ...) @error(ptr noundef nonnull @.str.60, ptr noundef nonnull @__func__.ctld_assoc_mgr_fini) #19
  br label %.thread

.thread:                                          ; preds = %16, %18, %20, %0
  ret void
}